; Function Attrs: mustprogress nounwind uwtable
define dso_local void @_ZN4llvm8codeview15CVSymbolVisitor17visitSymbolRecordERNS0_8CVRecordINS0_10SymbolKindEEEj(ptr dead_on_unwind noalias writable sret(%"class.llvm::Error") align 8 %0, ptr nocapture noundef nonnull readonly align 8 dereferenceable(8) %1, ptr noundef nonnull align 8 dereferenceable(16) %2, i32 noundef %3) local_unnamed_addr #1 align 2 {
_ZN4llvm5ErrorD2Ev.exit:
  %4 = load ptr, ptr %1, align 8
  %5 = load ptr, ptr %4, align 8
  %6 = getelementptr inbounds i8, ptr %5, i64 24
  %7 = load ptr, ptr %6, align 8
  tail call void %7(ptr dead_on_unwind writable sret(%"class.llvm::Error") align 8 %0, ptr noundef nonnull align 8 dereferenceable(8) %4, ptr noundef nonnull align 8 dereferenceable(16) %2, i32 noundef %3) #13
  %8 = load ptr, ptr %0, align 8
  %.not = icmp eq ptr %8, null
  br i1 %.not, label %9, label %11

9:                                                ; preds = %_ZN4llvm5ErrorD2Ev.exit
  %10 = load ptr, ptr %1, align 8
  tail call fastcc void @_ZL16finishVisitationRN4llvm8codeview8CVRecordINS0_10SymbolKindEEERNS0_22SymbolVisitorCallbacksE(ptr dead_on_unwind noalias nonnull writable align 8 %0, ptr noundef nonnull align 8 dereferenceable(16) %2, ptr noundef nonnull align 8 dereferenceable(8) %10)
  br label %11

11:                                               ; preds = %_ZN4llvm5ErrorD2Ev.exit, %9
  ret void
}